; Function Attrs: nounwind uwtable
define hidden void @lj_lex_cleanup(ptr noundef readonly captures(none) %0, ptr noundef readonly captures(none) %1) local_unnamed_addr #0 {
  %3 = getelementptr inbounds nuw i8, ptr %0, i64 16
  %4 = load i64, ptr %3, align 8, !tbaa !34
  %5 = inttoptr i64 %4 to ptr
  %6 = getelementptr inbounds nuw i8, ptr %1, i64 160
  %7 = load ptr, ptr %6, align 8, !tbaa !35
  %8 = getelementptr inbounds nuw i8, ptr %1, i64 168
  %9 = load i32, ptr %8, align 8, !tbaa !36
  %10 = zext i32 %9 to i64
  %11 = shl nuw nsw i64 %10, 3
  %12 = getelementptr inbounds nuw i8, ptr %5, i64 16
  %13 = load i64, ptr %12, align 8, !tbaa !37
  %14 = sub i64 %13, %11
  store i64 %14, ptr %12, align 8, !tbaa !37
  %15 = load ptr, ptr %5, align 8, !tbaa !46
  %16 = getelementptr inbounds nuw i8, ptr %5, i64 8
  %17 = load ptr, ptr %16, align 8, !tbaa !47
  %18 = tail call ptr %15(ptr noundef %17, ptr noundef %7, i64 noundef range(i64 0, 103079215081) %11, i64 noundef 0) #11
  %19 = getelementptr inbounds nuw i8, ptr %1, i64 144
  %20 = load ptr, ptr %19, align 8, !tbaa !48
  %21 = getelementptr inbounds nuw i8, ptr %1, i64 152
  %22 = load i32, ptr %21, align 8, !tbaa !49
  %23 = zext i32 %22 to i64
  %24 = mul nuw nsw i64 %23, 24
  %25 = load i64, ptr %12, align 8, !tbaa !37
  %26 = sub i64 %25, %24
  store i64 %26, ptr %12, align 8, !tbaa !37
  %27 = load ptr, ptr %5, align 8, !tbaa !46
  %28 = load ptr, ptr %16, align 8, !tbaa !47
  %29 = tail call ptr %27(ptr noundef %28, ptr noundef %20, i64 noundef range(i64 0, 103079215081) %24, i64 noundef 0) #11
  %30 = getelementptr inbounds nuw i8, ptr %1, i64 80
  %31 = load ptr, ptr %30, align 8, !tbaa !50
  %32 = getelementptr inbounds nuw i8, ptr %1, i64 72
  %33 = load ptr, ptr %32, align 8, !tbaa !51
  %34 = ptrtoint ptr %33 to i64
  %35 = ptrtoint ptr %31 to i64
  %36 = sub i64 %34, %35
  %37 = and i64 %36, 4294967295
  %38 = load i64, ptr %12, align 8, !tbaa !37
  %39 = sub i64 %38, %37
  store i64 %39, ptr %12, align 8, !tbaa !37
  %40 = load ptr, ptr %5, align 8, !tbaa !46
  %41 = load ptr, ptr %16, align 8, !tbaa !47
  %42 = tail call ptr %40(ptr noundef %41, ptr noundef %31, i64 noundef range(i64 0, 103079215081) %37, i64 noundef 0) #11
  ret void
}